target datalayout = "e-m:e-p270:32:32-p271:32:32-p272:64:64-i64:64-i128:128-f80:128-n8:16:32:64-S128"
target triple = "x86_64-pc-linux-gnu"

%struct.sharkd_expert_tap = type { ptr, ptr }
%struct.expert_info_s = type { i32, i32, i32, i32, ptr, ptr, ptr }

; Function Attrs: null_pointer_is_valid sspstrong uwtable
define internal i32 @sharkd_session_packet_tap_expert_cb(ptr noundef %0, ptr noundef %1, ptr noundef %2, ptr noundef %3, i32 noundef %4) #0 {
  %6 = alloca i32, align 4
  %7 = alloca ptr, align 8
  %8 = alloca ptr, align 8
  %9 = alloca ptr, align 8
  %10 = alloca ptr, align 8
  %11 = alloca i32, align 4
  %12 = alloca ptr, align 8
  %13 = alloca ptr, align 8
  %14 = alloca ptr, align 8
  %15 = alloca i32, align 4
  %16 = alloca i64, align 8
  %17 = alloca i64, align 8
  %18 = alloca ptr, align 8
  %19 = alloca ptr, align 8
  store ptr %0, ptr %7, align 8
  store ptr %1, ptr %8, align 8
  store ptr %2, ptr %9, align 8
  store ptr %3, ptr %10, align 8
  store i32 %4, ptr %11, align 4
  call void @llvm.lifetime.start.p0(i64 8, ptr %12) #21
  %20 = load ptr, ptr %7, align 8
  store ptr %20, ptr %12, align 8
  call void @llvm.lifetime.start.p0(i64 8, ptr %13) #21
  %21 = load ptr, ptr %10, align 8
  store ptr %21, ptr %13, align 8
  call void @llvm.lifetime.start.p0(i64 8, ptr %14) #21
  %22 = load ptr, ptr %13, align 8
  %23 = icmp eq ptr %22, null
  br i1 %23, label %24, label %25

24:                                               ; preds = %5
  store i32 0, ptr %6, align 4
  store i32 1, ptr %15, align 4
  br label %82

25:                                               ; preds = %5
  call void @llvm.lifetime.start.p0(i64 8, ptr %16) #21
  store i64 1, ptr %16, align 8
  call void @llvm.lifetime.start.p0(i64 8, ptr %17) #21
  store i64 40, ptr %17, align 8
  call void @llvm.lifetime.start.p0(i64 8, ptr %18) #21
  %26 = load i64, ptr %17, align 8
  %27 = icmp eq i64 %26, 1
  br i1 %27, label %28, label %31

28:                                               ; preds = %25
  %29 = load i64, ptr %16, align 8
  %30 = call noalias ptr @g_malloc(i64 noundef %29) #26
  store ptr %30, ptr %18, align 8
  br label %52

31:                                               ; preds = %25
  %32 = load i64, ptr %16, align 8
  %33 = call i1 @llvm.is.constant.i64(i64 %32)
  br i1 %33, label %34, label %47

34:                                               ; preds = %31
  %35 = load i64, ptr %17, align 8
  %36 = icmp eq i64 %35, 0
  br i1 %36, label %42, label %37

37:                                               ; preds = %34
  %38 = load i64, ptr %16, align 8
  %39 = load i64, ptr %17, align 8
  %40 = udiv i64 -1, %39
  %41 = icmp ule i64 %38, %40
  br i1 %41, label %42, label %47

42:                                               ; preds = %37, %34
  %43 = load i64, ptr %16, align 8
  %44 = load i64, ptr %17, align 8
  %45 = mul i64 %43, %44
  %46 = call noalias ptr @g_malloc(i64 noundef %45) #26
  store ptr %46, ptr %18, align 8
  br label %51

47:                                               ; preds = %37, %31
  %48 = load i64, ptr %16, align 8
  %49 = load i64, ptr %17, align 8
  %50 = call noalias ptr @g_malloc_n(i64 noundef %48, i64 noundef %49) #27
  store ptr %50, ptr %18, align 8
  br label %51

51:                                               ; preds = %47, %42
  br label %52

52:                                               ; preds = %51, %28
  %53 = load ptr, ptr %18, align 8
  store ptr %53, ptr %19, align 8
  call void @llvm.lifetime.end.p0(i64 8, ptr %18) #21
  call void @llvm.lifetime.end.p0(i64 8, ptr %17) #21
  call void @llvm.lifetime.end.p0(i64 8, ptr %16) #21
  %54 = load ptr, ptr %19, align 8
  store ptr %54, ptr %14, align 8
  %55 = load ptr, ptr %14, align 8
  %56 = load ptr, ptr %13, align 8
  call void @llvm.memcpy.p0.p0.i64(ptr align 8 %55, ptr align 8 %56, i64 40, i1 false)
  %57 = load ptr, ptr %12, align 8
  %58 = getelementptr inbounds nuw %struct.sharkd_expert_tap, ptr %57, i32 0, i32 1
  %59 = load ptr, ptr %58, align 8
  %60 = load ptr, ptr %14, align 8
  %61 = getelementptr inbounds nuw %struct.expert_info_s, ptr %60, i32 0, i32 4
  %62 = load ptr, ptr %61, align 8
  %63 = call ptr @g_string_chunk_insert_const(ptr noundef %59, ptr noundef %62)
  %64 = load ptr, ptr %14, align 8
  %65 = getelementptr inbounds nuw %struct.expert_info_s, ptr %64, i32 0, i32 4
  store ptr %63, ptr %65, align 8
  %66 = load ptr, ptr %12, align 8
  %67 = getelementptr inbounds nuw %struct.sharkd_expert_tap, ptr %66, i32 0, i32 1
  %68 = load ptr, ptr %67, align 8
  %69 = load ptr, ptr %14, align 8
  %70 = getelementptr inbounds nuw %struct.expert_info_s, ptr %69, i32 0, i32 5
  %71 = load ptr, ptr %70, align 8
  %72 = call ptr @g_string_chunk_insert_const(ptr noundef %68, ptr noundef %71)
  %73 = load ptr, ptr %14, align 8
  %74 = getelementptr inbounds nuw %struct.expert_info_s, ptr %73, i32 0, i32 5
  store ptr %72, ptr %74, align 8
  %75 = load ptr, ptr %12, align 8
  %76 = getelementptr inbounds nuw %struct.sharkd_expert_tap, ptr %75, i32 0, i32 0
  %77 = load ptr, ptr %76, align 8
  %78 = load ptr, ptr %14, align 8
  %79 = call ptr @g_slist_prepend(ptr noundef %77, ptr noundef %78)
  %80 = load ptr, ptr %12, align 8
  %81 = getelementptr inbounds nuw %struct.sharkd_expert_tap, ptr %80, i32 0, i32 0
  store ptr %79, ptr %81, align 8
  store i32 1, ptr %6, align 4
  store i32 1, ptr %15, align 4
  br label %82

82:                                               ; preds = %52, %24
  call void @llvm.lifetime.end.p0(i64 8, ptr %14) #21
  call void @llvm.lifetime.end.p0(i64 8, ptr %13) #21
  call void @llvm.lifetime.end.p0(i64 8, ptr %12) #21
  %83 = load i32, ptr %6, align 4
  ret i32 %83
}