; Function Attrs: null_pointer_is_valid sspstrong uwtable
define internal range(i32 0, 2) i32 @sharkd_session_packet_tap_expert_cb(ptr noundef captures(none) %0, ptr readnone captures(none) %1, ptr readnone captures(none) %2, ptr noundef readonly captures(address_is_null) %3, i32 %4) #0 {
  %6 = icmp eq ptr %3, null
  br i1 %6, label %20, label %7

7:                                                ; preds = %5
  %8 = tail call noalias dereferenceable_or_null(40) ptr @g_malloc(i64 noundef 40) #23
  tail call void @llvm.memcpy.p0.p0.i64(ptr noundef align 8 dereferenceable(40) %8, ptr noundef nonnull align 8 dereferenceable(40) %3, i64 40, i1 false)
  %9 = getelementptr inbounds nuw i8, ptr %0, i64 8
  %10 = load ptr, ptr %9, align 8
  %11 = getelementptr inbounds nuw i8, ptr %8, i64 16
  %12 = load ptr, ptr %11, align 8
  %13 = tail call ptr @g_string_chunk_insert_const(ptr noundef %10, ptr noundef %12)
  store ptr %13, ptr %11, align 8
  %14 = load ptr, ptr %9, align 8
  %15 = getelementptr inbounds nuw i8, ptr %8, i64 24
  %16 = load ptr, ptr %15, align 8
  %17 = tail call ptr @g_string_chunk_insert_const(ptr noundef %14, ptr noundef %16)
  store ptr %17, ptr %15, align 8
  %18 = load ptr, ptr %0, align 8
  %19 = tail call ptr @g_slist_prepend(ptr noundef %18, ptr noundef %8)
  store ptr %19, ptr %0, align 8
  br label %20

20:                                               ; preds = %5, %7
  %.0 = phi i32 [ 1, %7 ], [ 0, %5 ]
  ret i32 %.0
}